target datalayout = "e-m:e-p270:32:32-p271:32:32-p272:64:64-i64:64-i128:128-f80:128-n8:16:32:64-S128"
target triple = "x86_64-pc-linux-gnu"

%"struct.toku::range_buffer::record_header" = type { i8, i8, i8, i8, i16, i16, i8 }
%struct.__toku_dbt = type { ptr, i64, i64, i32 }
%"class.toku::range_buffer::iterator::record" = type { %"struct.toku::range_buffer::record_header", %struct.__toku_dbt, %struct.__toku_dbt }

; Function Attrs: mustprogress uwtable
define noundef ptr @_ZNK4toku12range_buffer8iterator6record13get_right_keyEv(ptr noundef nonnull align 8 dereferenceable(80) %0) #1 align 2 {
  %2 = alloca ptr, align 8
  %3 = alloca ptr, align 8
  store ptr %0, ptr %3, align 8, !tbaa !28
  %4 = load ptr, ptr %3, align 8
  %5 = getelementptr inbounds nuw %"class.toku::range_buffer::iterator::record", ptr %4, i32 0, i32 0
  %6 = getelementptr inbounds nuw %"struct.toku::range_buffer::record_header", ptr %5, i32 0, i32 3
  %7 = load i8, ptr %6, align 1, !tbaa !33, !range !13, !noundef !14
  %8 = trunc i8 %7 to i1
  br i1 %8, label %9, label %11

9:                                                ; preds = %1
  %10 = call noundef ptr @_Z26toku_dbt_negative_infinityv()
  store ptr %10, ptr %2, align 8
  br label %20

11:                                               ; preds = %1
  %12 = getelementptr inbounds nuw %"class.toku::range_buffer::iterator::record", ptr %4, i32 0, i32 0
  %13 = getelementptr inbounds nuw %"struct.toku::range_buffer::record_header", ptr %12, i32 0, i32 2
  %14 = load i8, ptr %13, align 2, !tbaa !34, !range !13, !noundef !14
  %15 = trunc i8 %14 to i1
  br i1 %15, label %16, label %18

16:                                               ; preds = %11
  %17 = call noundef ptr @_Z26toku_dbt_positive_infinityv()
  store ptr %17, ptr %2, align 8
  br label %20

18:                                               ; preds = %11
  %19 = getelementptr inbounds nuw %"class.toku::range_buffer::iterator::record", ptr %4, i32 0, i32 2
  store ptr %19, ptr %2, align 8
  br label %20

20:                                               ; preds = %18, %16, %9
  %21 = load ptr, ptr %2, align 8
  ret ptr %21
}