; Function Attrs: mustprogress uwtable
define noundef ptr @_ZNK4toku12range_buffer8iterator6record13get_right_keyEv(ptr noundef nonnull readonly align 8 dereferenceable(80) %0) local_unnamed_addr #1 align 2 {
  %2 = getelementptr inbounds nuw i8, ptr %0, i64 3
  %3 = load i8, ptr %2, align 1, !tbaa !26, !range !10, !noundef !11
  %4 = trunc nuw i8 %3 to i1
  br i1 %4, label %5, label %7

5:                                                ; preds = %1
  %6 = tail call noundef ptr @_Z26toku_dbt_negative_infinityv()
  br label %15

7:                                                ; preds = %1
  %8 = getelementptr inbounds nuw i8, ptr %0, i64 2
  %9 = load i8, ptr %8, align 2, !tbaa !27, !range !10, !noundef !11
  %10 = trunc nuw i8 %9 to i1
  br i1 %10, label %11, label %13

11:                                               ; preds = %7
  %12 = tail call noundef ptr @_Z26toku_dbt_positive_infinityv()
  br label %15

13:                                               ; preds = %7
  %14 = getelementptr inbounds nuw i8, ptr %0, i64 48
  br label %15

15:                                               ; preds = %13, %11, %5
  %.0 = phi ptr [ %6, %5 ], [ %12, %11 ], [ %14, %13 ]
  ret ptr %.0
}